; Function Attrs: nounwind uwtable
define ptr @l_Lean_Elab_Tactic_RCases_RCasesPatt_instToMessageData_parenAbove___boxed(ptr noundef %0, ptr noundef %1, ptr noundef %2) local_unnamed_addr #1 {
  %4 = ptrtoint ptr %0 to i64
  %5 = ptrtoint ptr %1 to i64
  %6 = and i64 %4, 1
  %7 = and i64 %6, %5
  %or.cond.not.i = icmp eq i64 %7, 0
  br i1 %or.cond.not.i, label %lean_nat_lt.exit.i, label %8, !prof !15

8:                                                ; preds = %3
  %9 = icmp ult ptr %0, %1
  br i1 %9, label %11, label %l_Lean_Elab_Tactic_RCases_RCasesPatt_instToMessageData_parenAbove.exit

lean_nat_lt.exit.i:                               ; preds = %3
  %10 = tail call zeroext i1 @lean_nat_big_lt(ptr noundef %0, ptr noundef %1) #5
  br i1 %10, label %11, label %l_Lean_Elab_Tactic_RCases_RCasesPatt_instToMessageData_parenAbove.exit

11:                                               ; preds = %lean_nat_lt.exit.i, %8
  %12 = load ptr, ptr @l_Lean_Elab_Tactic_RCases_RCasesPatt_instToMessageData_parenAbove___closed__1, align 8, !tbaa !4
  %13 = load ptr, ptr @l_Lean_Elab_Tactic_RCases_RCasesPatt_instToMessageData_parenAbove___closed__2, align 8, !tbaa !4
  %14 = tail call ptr @l_Lean_MessageData_bracket(ptr noundef %12, ptr noundef %2, ptr noundef %13) #5
  br label %l_Lean_Elab_Tactic_RCases_RCasesPatt_instToMessageData_parenAbove.exit

l_Lean_Elab_Tactic_RCases_RCasesPatt_instToMessageData_parenAbove.exit: ; preds = %8, %lean_nat_lt.exit.i, %11
  %.0.i = phi ptr [ %14, %11 ], [ %2, %lean_nat_lt.exit.i ], [ %2, %8 ]
  %15 = and i64 %5, 1
  %.not = icmp eq i64 %15, 0
  br i1 %.not, label %16, label %lean_dec.exit6

16:                                               ; preds = %l_Lean_Elab_Tactic_RCases_RCasesPatt_instToMessageData_parenAbove.exit
  %17 = load i32, ptr %1, align 4, !tbaa !8
  %18 = icmp sgt i32 %17, 1
  br i1 %18, label %19, label %21, !prof !11

19:                                               ; preds = %16
  %20 = add nsw i32 %17, -1
  store i32 %20, ptr %1, align 4, !tbaa !8
  br label %lean_dec.exit6

21:                                               ; preds = %16
  %.not.i = icmp eq i32 %17, 0
  br i1 %.not.i, label %lean_dec.exit6, label %22

22:                                               ; preds = %21
  tail call void @lean_dec_ref_cold(ptr noundef nonnull %1) #5
  br label %lean_dec.exit6

lean_dec.exit6:                                   ; preds = %22, %21, %19, %l_Lean_Elab_Tactic_RCases_RCasesPatt_instToMessageData_parenAbove.exit
  %.not9 = icmp eq i64 %6, 0
  br i1 %.not9, label %23, label %lean_dec.exit

23:                                               ; preds = %lean_dec.exit6
  %24 = load i32, ptr %0, align 4, !tbaa !8
  %25 = icmp sgt i32 %24, 1
  br i1 %25, label %26, label %28, !prof !11

26:                                               ; preds = %23
  %27 = add nsw i32 %24, -1
  store i32 %27, ptr %0, align 4, !tbaa !8
  br label %lean_dec.exit

28:                                               ; preds = %23
  %.not.i7 = icmp eq i32 %24, 0
  br i1 %.not.i7, label %lean_dec.exit, label %29

29:                                               ; preds = %28
  tail call void @lean_dec_ref_cold(ptr noundef nonnull %0) #5
  br label %lean_dec.exit

lean_dec.exit:                                    ; preds = %29, %28, %26, %lean_dec.exit6
  ret ptr %.0.i
}